; Function Attrs: mustprogress uwtable
define noundef ptr @ubrk_safeClone_77(ptr noundef %0, ptr noundef readnone captures(none) %1, ptr noundef %2, ptr noundef %3) local_unnamed_addr #0 {
  %5 = icmp eq ptr %3, null
  br i1 %5, label %20, label %6

6:                                                ; preds = %4
  %7 = load i32, ptr %3, align 4, !tbaa !3
  %8 = icmp slt i32 %7, 1
  br i1 %8, label %9, label %20

9:                                                ; preds = %6
  %10 = icmp eq ptr %0, null
  br i1 %10, label %.sink.split, label %11

11:                                               ; preds = %9
  %.not19 = icmp ne ptr %2, null
  br i1 %.not19, label %12, label %14

12:                                               ; preds = %11
  %13 = load i32, ptr %2, align 4, !tbaa !9
  store i32 1, ptr %2, align 4, !tbaa !9
  %.not = icmp eq i32 %13, 0
  br i1 %.not, label %20, label %14

14:                                               ; preds = %12, %11
  %15 = load ptr, ptr %0, align 8, !tbaa !7
  %16 = getelementptr inbounds nuw i8, ptr %15, i64 32
  %17 = load ptr, ptr %16, align 8
  %18 = tail call noundef ptr %17(ptr noundef nonnull align 8 dereferenceable(32) %0)
  %19 = icmp eq ptr %18, null
  %brmerge = or i1 %19, %.not19
  %.mux = select i1 %19, i32 7, i32 -126
  br i1 %brmerge, label %.sink.split, label %20

.sink.split:                                      ; preds = %14, %9
  %.sink = phi i32 [ 1, %9 ], [ %.mux, %14 ]
  %.0.ph = phi ptr [ null, %9 ], [ %18, %14 ]
  store i32 %.sink, ptr %3, align 4, !tbaa !3
  br label %20

20:                                               ; preds = %14, %.sink.split, %12, %4, %6
  %.0 = phi ptr [ null, %12 ], [ null, %6 ], [ null, %4 ], [ %.0.ph, %.sink.split ], [ %18, %14 ]
  ret ptr %.0
}